target datalayout = "e-m:e-p270:32:32-p271:32:32-p272:64:64-i64:64-i128:128-f80:128-n8:16:32:64-S128"
target triple = "x86_64-pc-linux-gnu"

%struct.slurm_conf_t = type { i64, ptr, i16, ptr, ptr, ptr, ptr, ptr, i16, ptr, ptr, ptr, ptr, ptr, ptr, ptr, i16, ptr, ptr, ptr, ptr, i16, ptr, ptr, ptr, i64, ptr, ptr, ptr, ptr, i16, ptr, ptr, i16, i32, ptr, i32, ptr, i32, i32, ptr, ptr, i64, i64, ptr, i16, i16, ptr, i32, i32, ptr, i32, ptr, i32, i16, i16, i16, ptr, i16, i16, ptr, ptr, i32, i16, i16, ptr, i32, i16, ptr, ptr, ptr, ptr, i16, ptr, ptr, ptr, ptr, i32, ptr, ptr, ptr, ptr, i16, i16, ptr, i32, i32, i32, i16, i16, ptr, ptr, i16, ptr, ptr, i32, i32, i32, i32, i32, i64, i32, i32, i16, ptr, ptr, i32, ptr, ptr, ptr, i16, i32, ptr, ptr, i16, ptr, ptr, i32, i16, ptr, ptr, ptr, ptr, i32, i32, i16, i16, i32, ptr, i16, ptr, i32, i32, i32, i32, i32, i32, ptr, i16, ptr, ptr, i32, i16, ptr, i32, i16, i16, ptr, ptr, ptr, i16, ptr, ptr, ptr, ptr, i16, i16, ptr, i16, ptr, i16, ptr, i16, ptr, i16, ptr, ptr, ptr, ptr, i16, ptr, ptr, ptr, i32, ptr, i32, ptr, ptr, i16, ptr, ptr, i32, i16, ptr, ptr, i16, i16, ptr, i16, ptr, ptr, ptr, i32, ptr, i16, i16, ptr, ptr, ptr, ptr, ptr, ptr, ptr, ptr, i16, i32, i16, ptr, ptr, ptr, ptr, i32, ptr, ptr, ptr, i16, ptr, ptr, ptr, i16, ptr, i16, ptr, i16, i16, ptr }
%union.pthread_mutex_t = type { %struct.__pthread_mutex_s }
%struct.__pthread_mutex_s = type { i32, i32, i32, i32, i32, i16, i16, %struct.__pthread_internal_list }
%struct.__pthread_internal_list = type { ptr, ptr }
%struct.sockaddr_storage = type { i16, [118 x i8], i64 }
%struct.slurmdb_cluster_rec = type { ptr, i16, i64, %struct.sockaddr_storage, ptr, i32, i16, ptr, i16, %struct.slurmdb_cluster_fed_t, i32, %union.pthread_mutex_t, ptr, ptr, ptr, i16, ptr, ptr }
%struct.slurmdb_cluster_fed_t = type { ptr, i32, ptr, ptr, ptr, i32, i8, i8 }
%struct.slurm_protocol_config_t = type { i32, ptr, i8, %struct.sockaddr_storage }

@slurm_conf = external global %struct.slurm_conf_t, align 8
@.str.97 = private unnamed_addr constant [47 x i8] c"NET: %s: Failed to contact controller(%pA): %m\00", align 1
@__func__._open_controller = private unnamed_addr constant [17 x i8] c"_open_controller\00", align 1
@.str.98 = private unnamed_addr constant [42 x i8] c"NET: %s: Contacted SlurmctldHost[%d](%pA)\00", align 1
@.str.99 = private unnamed_addr constant [54 x i8] c"NET: %s: Failed to contact SlurmctldHost[%d](%pA): %m\00", align 1

; Function Attrs: nounwind uwtable
define internal void @_slurm_api_free_comm_config(ptr noundef %0) #0 {
  %2 = alloca ptr, align 8
  store ptr %0, ptr %2, align 8
  %3 = load ptr, ptr %2, align 8
  %4 = icmp ne ptr %3, null
  br i1 %4, label %5, label %8

5:                                                ; preds = %1
  %6 = load ptr, ptr %2, align 8
  %7 = getelementptr inbounds nuw %struct.slurm_protocol_config_t, ptr %6, i32 0, i32 1
  call void @slurm_xfree(ptr noundef %7)
  call void @slurm_xfree(ptr noundef %2)
  br label %8

8:                                                ; preds = %5, %1
  ret void
}

; Function Attrs: nounwind uwtable
define dso_local i32 @slurm_open_msg_conn(ptr noundef %0) #0 {
  %2 = alloca ptr, align 8
  %3 = alloca i32, align 4
  store ptr %0, ptr %2, align 8
  call void @llvm.lifetime.start.p0(i64 4, ptr %3) #12
  %4 = load ptr, ptr %2, align 8
  %5 = call i32 @slurm_open_stream(ptr noundef %4, i1 noundef zeroext false)
  store i32 %5, ptr %3, align 4
  %6 = load i32, ptr %3, align 4
  call void @llvm.lifetime.end.p0(i64 4, ptr %3) #12
  ret i32 %6
}

; Function Attrs: nounwind uwtable
define internal i32 @_open_controller(ptr noundef %0, ptr noundef %1, ptr noundef %2) #0 {
  %4 = alloca i32, align 4
  %5 = alloca ptr, align 8
  %6 = alloca ptr, align 8
  %7 = alloca ptr, align 8
  %8 = alloca i32, align 4
  %9 = alloca i32, align 4
  %10 = alloca i64, align 8
  %11 = alloca ptr, align 8
  %12 = alloca i32, align 4
  %13 = alloca i32, align 4
  %14 = alloca i32, align 4
  %15 = alloca ptr, align 8
  store ptr %0, ptr %5, align 8
  store ptr %1, ptr %6, align 8
  store ptr %2, ptr %7, align 8
  call void @llvm.lifetime.start.p0(i64 4, ptr %8) #12
  store i32 -1, ptr %8, align 4
  call void @llvm.lifetime.start.p0(i64 4, ptr %9) #12
  store i32 0, ptr %9, align 4
  call void @llvm.lifetime.start.p0(i64 8, ptr %10) #12
  call void @llvm.lifetime.start.p0(i64 8, ptr %11) #12
  store ptr null, ptr %11, align 8
  %16 = load ptr, ptr %7, align 8
  %17 = icmp ne ptr %16, null
  br i1 %17, label %23, label %18

18:                                               ; preds = %3
  %19 = call ptr @_slurm_api_get_comm_config()
  store ptr %19, ptr %11, align 8
  %20 = icmp ne ptr %19, null
  br i1 %20, label %22, label %21

21:                                               ; preds = %18
  store i32 -1, ptr %4, align 4
  store i32 1, ptr %12, align 4
  br label %201

22:                                               ; preds = %18
  br label %23

23:                                               ; preds = %22, %3
  %24 = call i64 @time(ptr noundef null) #12
  store i64 %24, ptr %10, align 8
  br label %25

25:                                               ; preds = %191, %23
  br label %26

26:                                               ; preds = %25
  %27 = load i32, ptr %9, align 4
  %28 = icmp ne i32 %27, 0
  br i1 %28, label %29, label %39

29:                                               ; preds = %26
  %30 = call i64 @time(ptr noundef null) #12
  %31 = load i64, ptr %10, align 8
  %32 = sub nsw i64 %30, %31
  %33 = load i16, ptr getelementptr inbounds nuw (%struct.slurm_conf_t, ptr @slurm_conf, i32 0, i32 110), align 8
  %34 = zext i16 %33 to i64
  %35 = icmp sge i64 %32, %34
  br i1 %35, label %36, label %37

36:                                               ; preds = %29
  br label %192

37:                                               ; preds = %29
  %38 = call i32 @sleep(i32 noundef 1)
  br label %39

39:                                               ; preds = %37, %26
  store i32 1, ptr %9, align 4
  %40 = load ptr, ptr %7, align 8
  %41 = icmp ne ptr %40, null
  br i1 %41, label %42, label %81

42:                                               ; preds = %39
  %43 = load ptr, ptr %7, align 8
  %44 = getelementptr inbounds nuw %struct.slurmdb_cluster_rec, ptr %43, i32 0, i32 3
  %45 = call zeroext i1 @slurm_addr_is_unspec(ptr noundef %44)
  br i1 %45, label %46, label %56

46:                                               ; preds = %42
  %47 = load ptr, ptr %7, align 8
  %48 = getelementptr inbounds nuw %struct.slurmdb_cluster_rec, ptr %47, i32 0, i32 3
  %49 = load ptr, ptr %7, align 8
  %50 = getelementptr inbounds nuw %struct.slurmdb_cluster_rec, ptr %49, i32 0, i32 5
  %51 = load i32, ptr %50, align 8
  %52 = trunc i32 %51 to i16
  %53 = load ptr, ptr %7, align 8
  %54 = getelementptr inbounds nuw %struct.slurmdb_cluster_rec, ptr %53, i32 0, i32 4
  %55 = load ptr, ptr %54, align 8
  call void @slurm_set_addr(ptr noundef %48, i16 noundef zeroext %52, ptr noundef %55)
  br label %56

56:                                               ; preds = %46, %42
  %57 = load ptr, ptr %7, align 8
  %58 = getelementptr inbounds nuw %struct.slurmdb_cluster_rec, ptr %57, i32 0, i32 3
  store ptr %58, ptr %5, align 8
  %59 = load ptr, ptr %5, align 8
  %60 = call i32 @slurm_open_msg_conn(ptr noundef %59)
  store i32 %60, ptr %8, align 4
  %61 = load i32, ptr %8, align 4
  %62 = icmp sge i32 %61, 0
  br i1 %62, label %63, label %64

63:                                               ; preds = %56
  br label %198

64:                                               ; preds = %56
  br label %65

65:                                               ; preds = %64
  %66 = load i64, ptr getelementptr inbounds nuw (%struct.slurm_conf_t, ptr @slurm_conf, i32 0, i32 42), align 8
  %67 = and i64 %66, 1024
  %68 = icmp ne i64 %67, 0
  br i1 %68, label %69, label %78

69:                                               ; preds = %65
  br label %70

70:                                               ; preds = %69
  %71 = call i32 @get_log_level()
  %72 = icmp sge i32 %71, 4
  br i1 %72, label %73, label %75

73:                                               ; preds = %70
  %74 = load ptr, ptr %5, align 8
  call void (i32, ptr, ...) @log_var(i32 noundef 4, ptr noundef @.str.97, ptr noundef @__func__._open_controller, ptr noundef %74)
  br label %75

75:                                               ; preds = %73, %70
  br label %76

76:                                               ; preds = %75
  br label %77

77:                                               ; preds = %76
  br label %78

78:                                               ; preds = %77, %65
  br label %79

79:                                               ; preds = %78
  br label %80

80:                                               ; preds = %79
  br label %191

81:                                               ; preds = %39
  %82 = load ptr, ptr %11, align 8
  %83 = getelementptr inbounds nuw %struct.slurm_protocol_config_t, ptr %82, i32 0, i32 2
  %84 = load i8, ptr %83, align 8, !range !16, !noundef !17
  %85 = trunc i8 %84 to i1
  br i1 %85, label %86, label %111

86:                                               ; preds = %81
  %87 = load ptr, ptr %11, align 8
  %88 = getelementptr inbounds nuw %struct.slurm_protocol_config_t, ptr %87, i32 0, i32 3
  %89 = call i32 @slurm_open_msg_conn(ptr noundef %88)
  store i32 %89, ptr %8, align 4
  %90 = load i32, ptr %8, align 4
  %91 = icmp sge i32 %90, 0
  br i1 %91, label %92, label %93

92:                                               ; preds = %86
  br label %198

93:                                               ; preds = %86
  br label %94

94:                                               ; preds = %93
  %95 = load i64, ptr getelementptr inbounds nuw (%struct.slurm_conf_t, ptr @slurm_conf, i32 0, i32 42), align 8
  %96 = and i64 %95, 1024
  %97 = icmp ne i64 %96, 0
  br i1 %97, label %98, label %108

98:                                               ; preds = %94
  br label %99

99:                                               ; preds = %98
  %100 = call i32 @get_log_level()
  %101 = icmp sge i32 %100, 4
  br i1 %101, label %102, label %105

102:                                              ; preds = %99
  %103 = load ptr, ptr %11, align 8
  %104 = getelementptr inbounds nuw %struct.slurm_protocol_config_t, ptr %103, i32 0, i32 3
  call void (i32, ptr, ...) @log_var(i32 noundef 4, ptr noundef @.str.97, ptr noundef @__func__._open_controller, ptr noundef %104)
  br label %105

105:                                              ; preds = %102, %99
  br label %106

106:                                              ; preds = %105
  br label %107

107:                                              ; preds = %106
  br label %108

108:                                              ; preds = %107, %94
  br label %109

109:                                              ; preds = %108
  br label %110

110:                                              ; preds = %109
  br label %190

111:                                              ; preds = %81
  call void @llvm.lifetime.start.p0(i64 4, ptr %13) #12
  store i32 0, ptr %13, align 4
  br label %112

112:                                              ; preds = %183, %111
  %113 = load i32, ptr %13, align 4
  %114 = load ptr, ptr %11, align 8
  %115 = getelementptr inbounds nuw %struct.slurm_protocol_config_t, ptr %114, i32 0, i32 0
  %116 = load i32, ptr %115, align 8
  %117 = icmp ult i32 %113, %116
  br i1 %117, label %119, label %118

118:                                              ; preds = %112
  store i32 13, ptr %12, align 4
  br label %186

119:                                              ; preds = %112
  call void @llvm.lifetime.start.p0(i64 4, ptr %14) #12
  %120 = load ptr, ptr %6, align 8
  %121 = load i32, ptr %120, align 4
  %122 = load i32, ptr %13, align 4
  %123 = add nsw i32 %121, %122
  %124 = load ptr, ptr %11, align 8
  %125 = getelementptr inbounds nuw %struct.slurm_protocol_config_t, ptr %124, i32 0, i32 0
  %126 = load i32, ptr %125, align 8
  %127 = urem i32 %123, %126
  store i32 %127, ptr %14, align 4
  call void @llvm.lifetime.start.p0(i64 8, ptr %15) #12
  %128 = load ptr, ptr %11, align 8
  %129 = getelementptr inbounds nuw %struct.slurm_protocol_config_t, ptr %128, i32 0, i32 1
  %130 = load ptr, ptr %129, align 8
  %131 = load i32, ptr %14, align 4
  %132 = sext i32 %131 to i64
  %133 = getelementptr inbounds %struct.sockaddr_storage, ptr %130, i64 %132
  store ptr %133, ptr %15, align 8
  %134 = load ptr, ptr %15, align 8
  %135 = call zeroext i1 @slurm_addr_is_unspec(ptr noundef %134)
  br i1 %135, label %136, label %137

136:                                              ; preds = %119
  store i32 15, ptr %12, align 4
  br label %180

137:                                              ; preds = %119
  %138 = load ptr, ptr %15, align 8
  %139 = call i32 @slurm_open_msg_conn(ptr noundef %138)
  store i32 %139, ptr %8, align 4
  %140 = load i32, ptr %8, align 4
  %141 = icmp sge i32 %140, 0
  br i1 %141, label %142, label %162

142:                                              ; preds = %137
  br label %143

143:                                              ; preds = %142
  %144 = load i64, ptr getelementptr inbounds nuw (%struct.slurm_conf_t, ptr @slurm_conf, i32 0, i32 42), align 8
  %145 = and i64 %144, 1024
  %146 = icmp ne i64 %145, 0
  br i1 %146, label %147, label %157

147:                                              ; preds = %143
  br label %148

148:                                              ; preds = %147
  %149 = call i32 @get_log_level()
  %150 = icmp sge i32 %149, 4
  br i1 %150, label %151, label %154

151:                                              ; preds = %148
  %152 = load i32, ptr %14, align 4
  %153 = load ptr, ptr %15, align 8
  call void (i32, ptr, ...) @log_var(i32 noundef 4, ptr noundef @.str.98, ptr noundef @__func__._open_controller, i32 noundef %152, ptr noundef %153)
  br label %154

154:                                              ; preds = %151, %148
  br label %155

155:                                              ; preds = %154
  br label %156

156:                                              ; preds = %155
  br label %157

157:                                              ; preds = %156, %143
  br label %158

158:                                              ; preds = %157
  br label %159

159:                                              ; preds = %158
  %160 = load i32, ptr %14, align 4
  %161 = load ptr, ptr %6, align 8
  store i32 %160, ptr %161, align 4
  store i32 4, ptr %12, align 4
  br label %180

162:                                              ; preds = %137
  br label %163

163:                                              ; preds = %162
  %164 = load i64, ptr getelementptr inbounds nuw (%struct.slurm_conf_t, ptr @slurm_conf, i32 0, i32 42), align 8
  %165 = and i64 %164, 1024
  %166 = icmp ne i64 %165, 0
  br i1 %166, label %167, label %177

167:                                              ; preds = %163
  br label %168

168:                                              ; preds = %167
  %169 = call i32 @get_log_level()
  %170 = icmp sge i32 %169, 4
  br i1 %170, label %171, label %174

171:                                              ; preds = %168
  %172 = load i32, ptr %14, align 4
  %173 = load ptr, ptr %15, align 8
  call void (i32, ptr, ...) @log_var(i32 noundef 4, ptr noundef @.str.99, ptr noundef @__func__._open_controller, i32 noundef %172, ptr noundef %173)
  br label %174

174:                                              ; preds = %171, %168
  br label %175

175:                                              ; preds = %174
  br label %176

176:                                              ; preds = %175
  br label %177

177:                                              ; preds = %176, %163
  br label %178

178:                                              ; preds = %177
  br label %179

179:                                              ; preds = %178
  store i32 0, ptr %12, align 4
  br label %180

180:                                              ; preds = %159, %179, %136
  call void @llvm.lifetime.end.p0(i64 8, ptr %15) #12
  call void @llvm.lifetime.end.p0(i64 4, ptr %14) #12
  %181 = load i32, ptr %12, align 4
  switch i32 %181, label %186 [
    i32 0, label %182
    i32 15, label %183
  ]

182:                                              ; preds = %180
  br label %183

183:                                              ; preds = %182, %180
  %184 = load i32, ptr %13, align 4
  %185 = add nsw i32 %184, 1
  store i32 %185, ptr %13, align 4
  br label %112, !llvm.loop !24

186:                                              ; preds = %180, %118
  call void @llvm.lifetime.end.p0(i64 4, ptr %13) #12
  %187 = load i32, ptr %12, align 4
  switch i32 %187, label %201 [
    i32 13, label %188
    i32 4, label %198
  ]

188:                                              ; preds = %186
  %189 = load ptr, ptr %6, align 8
  store i32 0, ptr %189, align 4
  br label %190

190:                                              ; preds = %188, %110
  br label %191

191:                                              ; preds = %190, %80
  br label %25, !llvm.loop !25

192:                                              ; preds = %36
  store ptr null, ptr %5, align 8
  %193 = load ptr, ptr %11, align 8
  call void @_slurm_api_free_comm_config(ptr noundef %193)
  br label %194

194:                                              ; preds = %192
  %195 = call ptr @__errno_location() #14
  store i32 1800, ptr %195, align 4
  store i32 -1, ptr %4, align 4
  store i32 1, ptr %12, align 4
  br label %201

196:                                              ; No predecessors!
  br label %197

197:                                              ; preds = %196
  br label %198

198:                                              ; preds = %197, %186, %92, %63
  %199 = load ptr, ptr %11, align 8
  call void @_slurm_api_free_comm_config(ptr noundef %199)
  %200 = load i32, ptr %8, align 4
  store i32 %200, ptr %4, align 4
  store i32 1, ptr %12, align 4
  br label %201

201:                                              ; preds = %198, %194, %186, %21
  call void @llvm.lifetime.end.p0(i64 8, ptr %11) #12
  call void @llvm.lifetime.end.p0(i64 8, ptr %10) #12
  call void @llvm.lifetime.end.p0(i64 4, ptr %9) #12
  call void @llvm.lifetime.end.p0(i64 4, ptr %8) #12
  %202 = load i32, ptr %4, align 4
  ret i32 %202
}