; Function Attrs: nounwind uwtable
define internal fastcc range(i32 -1, -2147483648) i32 @_open_controller(ptr noundef captures(none) %0, ptr noundef %1) unnamed_addr #1 {
  %3 = alloca ptr, align 8
  %4 = alloca ptr, align 8
  %.not = icmp eq ptr %1, null
  br i1 %.not, label %5, label %.critedge.split.preheader

5:                                                ; preds = %2
  %6 = tail call fastcc ptr @_slurm_api_get_comm_config()
  %.not54 = icmp eq ptr %6, null
  br i1 %.not54, label %87, label %.critedge.split.us.preheader

.critedge.split.preheader:                        ; preds = %2
  %7 = tail call i64 @time(ptr noundef null) #19
  %8 = getelementptr inbounds nuw i8, ptr %1, i64 24
  %9 = getelementptr inbounds nuw i8, ptr %1, i64 160
  %10 = getelementptr inbounds nuw i8, ptr %1, i64 152
  br label %.critedge.split

.critedge.split.us.preheader:                     ; preds = %5
  %11 = tail call i64 @time(ptr noundef null) #19
  %12 = getelementptr inbounds nuw i8, ptr %6, i64 16
  %13 = getelementptr inbounds nuw i8, ptr %6, i64 8
  %14 = getelementptr inbounds nuw i8, ptr %6, i64 24
  br label %.critedge.split.us

.critedge.split.us:                               ; preds = %.critedge.split.us.preheader, %54
  %15 = load i8, ptr %12, align 8, !range !17, !noundef !18
  %16 = trunc nuw i8 %15 to i1
  br i1 %16, label %39, label %.preheader.us

._crit_edge.us:                                   ; preds = %35, %.preheader.us
  store i32 0, ptr %0, align 4
  br label %49

.lr.ph.us:                                        ; preds = %.preheader.us, %35
  %17 = phi i32 [ %37, %35 ], [ %56, %.preheader.us ]
  %.03918.us = phi i32 [ %36, %35 ], [ 0, %.preheader.us ]
  %18 = load i32, ptr %0, align 4
  %19 = add nsw i32 %18, %.03918.us
  %20 = urem i32 %19, %17
  %21 = load ptr, ptr %13, align 8
  %22 = sext i32 %20 to i64
  %23 = getelementptr inbounds %struct.sockaddr_storage, ptr %21, i64 %22
  %24 = tail call zeroext i1 @slurm_addr_is_unspec(ptr noundef %23) #19
  br i1 %24, label %35, label %25

25:                                               ; preds = %.lr.ph.us
  %26 = tail call i32 @slurm_open_stream(ptr noundef %23, i1 noundef zeroext false) #19
  %27 = icmp sgt i32 %26, -1
  %28 = load i64, ptr getelementptr inbounds nuw (i8, ptr @slurm_conf, i64 320), align 8
  %29 = and i64 %28, 1024
  %.not58 = icmp eq i64 %29, 0
  br i1 %27, label %.split.us, label %30

30:                                               ; preds = %25
  br i1 %.not58, label %35, label %31

31:                                               ; preds = %30
  %32 = tail call i32 @get_log_level() #19
  %33 = icmp sgt i32 %32, 3
  br i1 %33, label %34, label %35

34:                                               ; preds = %31
  tail call void (i32, ptr, ...) @log_var(i32 noundef 4, ptr noundef nonnull @.str.99, ptr noundef nonnull @__func__._open_controller, i32 noundef %20, ptr noundef %23) #19
  br label %35

35:                                               ; preds = %34, %31, %30, %.lr.ph.us
  %36 = add nuw nsw i32 %.03918.us, 1
  %37 = load i32, ptr %6, align 8
  %38 = icmp ult i32 %36, %37
  br i1 %38, label %.lr.ph.us, label %._crit_edge.us, !llvm.loop !24

39:                                               ; preds = %.critedge.split.us
  %40 = tail call i32 @slurm_open_stream(ptr noundef nonnull %14, i1 noundef zeroext false) #19
  %41 = icmp sgt i32 %40, -1
  br i1 %41, label %.thread9, label %42

42:                                               ; preds = %39
  %43 = load i64, ptr getelementptr inbounds nuw (i8, ptr @slurm_conf, i64 320), align 8
  %44 = and i64 %43, 1024
  %.not59.us = icmp eq i64 %44, 0
  br i1 %.not59.us, label %49, label %45

45:                                               ; preds = %42
  %46 = tail call i32 @get_log_level() #19
  %47 = icmp sgt i32 %46, 3
  br i1 %47, label %48, label %49

48:                                               ; preds = %45
  tail call void (i32, ptr, ...) @log_var(i32 noundef 4, ptr noundef nonnull @.str.97, ptr noundef nonnull @__func__._open_controller, ptr noundef nonnull %14) #19
  br label %49

49:                                               ; preds = %48, %45, %42, %._crit_edge.us
  %50 = tail call i64 @time(ptr noundef null) #19
  %51 = sub nsw i64 %50, %11
  %52 = load i16, ptr getelementptr inbounds nuw (i8, ptr @slurm_conf, i64 744), align 8
  %53 = zext i16 %52 to i64
  %.not56.us = icmp slt i64 %51, %53
  br i1 %.not56.us, label %54, label %84

54:                                               ; preds = %49
  %55 = tail call i32 @sleep(i32 noundef 1) #19
  br label %.critedge.split.us

.preheader.us:                                    ; preds = %.critedge.split.us
  %56 = load i32, ptr %6, align 8
  %.not24 = icmp eq i32 %56, 0
  br i1 %.not24, label %._crit_edge.us, label %.lr.ph.us

57:                                               ; preds = %79
  %58 = tail call i32 @sleep(i32 noundef 1) #19
  br label %.critedge.split

.critedge.split:                                  ; preds = %.critedge.split.preheader, %57
  %59 = tail call zeroext i1 @slurm_addr_is_unspec(ptr noundef nonnull %8) #19
  br i1 %59, label %60, label %64

60:                                               ; preds = %.critedge.split
  %61 = load i32, ptr %9, align 8
  %62 = trunc i32 %61 to i16
  %63 = load ptr, ptr %10, align 8
  tail call void @slurm_set_addr(ptr noundef nonnull %8, i16 noundef zeroext %62, ptr noundef %63) #19
  br label %64

64:                                               ; preds = %60, %.critedge.split
  %65 = tail call i32 @slurm_open_stream(ptr noundef nonnull %8, i1 noundef zeroext false) #19
  %66 = icmp sgt i32 %65, -1
  br i1 %66, label %86, label %67

67:                                               ; preds = %64
  %68 = load i64, ptr getelementptr inbounds nuw (i8, ptr @slurm_conf, i64 320), align 8
  %69 = and i64 %68, 1024
  %.not60 = icmp eq i64 %69, 0
  br i1 %.not60, label %79, label %70

70:                                               ; preds = %67
  %71 = tail call i32 @get_log_level() #19
  %72 = icmp sgt i32 %71, 3
  br i1 %72, label %73, label %79

73:                                               ; preds = %70
  tail call void (i32, ptr, ...) @log_var(i32 noundef 4, ptr noundef nonnull @.str.97, ptr noundef nonnull @__func__._open_controller, ptr noundef nonnull %8) #19
  br label %79

.split.us:                                        ; preds = %25
  br i1 %.not58, label %78, label %74

74:                                               ; preds = %.split.us
  %75 = tail call i32 @get_log_level() #19
  %76 = icmp sgt i32 %75, 3
  br i1 %76, label %77, label %78

77:                                               ; preds = %74
  tail call void (i32, ptr, ...) @log_var(i32 noundef 4, ptr noundef nonnull @.str.98, ptr noundef nonnull @__func__._open_controller, i32 noundef %20, ptr noundef %23) #19
  br label %78

78:                                               ; preds = %74, %77, %.split.us
  store i32 %20, ptr %0, align 4
  br label %.thread9

79:                                               ; preds = %67, %73, %70
  %80 = tail call i64 @time(ptr noundef null) #19
  %81 = sub nsw i64 %80, %7
  %82 = load i16, ptr getelementptr inbounds nuw (i8, ptr @slurm_conf, i64 744), align 8
  %83 = zext i16 %82 to i64
  %.not56 = icmp slt i64 %81, %83
  br i1 %.not56, label %57, label %.split23.us.thread

.split23.us.thread:                               ; preds = %79
  call void @llvm.lifetime.start.p0(i64 8, ptr nonnull %4)
  br label %_slurm_api_free_comm_config.exit

84:                                               ; preds = %49
  call void @llvm.lifetime.start.p0(i64 8, ptr nonnull %4)
  store ptr %6, ptr %4, align 8
  tail call void @slurm_xfree(ptr noundef nonnull %13) #19
  call void @slurm_xfree(ptr noundef nonnull %4) #19
  br label %_slurm_api_free_comm_config.exit

_slurm_api_free_comm_config.exit:                 ; preds = %.split23.us.thread, %84
  call void @llvm.lifetime.end.p0(i64 8, ptr nonnull %4)
  %85 = tail call ptr @__errno_location() #21
  store i32 1800, ptr %85, align 4
  br label %87

.thread9:                                         ; preds = %39, %78
  %.143.ph = phi i32 [ %26, %78 ], [ %40, %39 ]
  call void @llvm.lifetime.start.p0(i64 8, ptr nonnull %3)
  store ptr %6, ptr %3, align 8
  tail call void @slurm_xfree(ptr noundef nonnull %13) #19
  call void @slurm_xfree(ptr noundef nonnull %3) #19
  br label %_slurm_api_free_comm_config.exit62

86:                                               ; preds = %64
  call void @llvm.lifetime.start.p0(i64 8, ptr nonnull %3)
  store ptr null, ptr %3, align 8
  br label %_slurm_api_free_comm_config.exit62

_slurm_api_free_comm_config.exit62:               ; preds = %86, %.thread9
  %.14313 = phi i32 [ %65, %86 ], [ %.143.ph, %.thread9 ]
  call void @llvm.lifetime.end.p0(i64 8, ptr nonnull %3)
  br label %87

87:                                               ; preds = %5, %_slurm_api_free_comm_config.exit62, %_slurm_api_free_comm_config.exit
  %.0 = phi i32 [ -1, %_slurm_api_free_comm_config.exit ], [ %.14313, %_slurm_api_free_comm_config.exit62 ], [ -1, %5 ]
  ret i32 %.0
}